target datalayout = "e-m:e-p270:32:32-p271:32:32-p272:64:64-i64:64-i128:128-f80:128-n8:16:32:64-S128"
target triple = "x86_64-pc-linux-gnu"

%struct.H5HF_free_section_t = type { %struct.H5FS_section_info_t, %union.anon }
%struct.H5FS_section_info_t = type { i64, i64, i32, i32 }
%union.anon = type { %struct.anon.1 }
%struct.anon.1 = type { %union.anon.2, i32, i32, i32, ptr, i32, i64, i32, i32, i32, ptr, i32, ptr }
%union.anon.2 = type { ptr }
%struct.anon = type { ptr, i32 }

@H5HF_init_g = external global i8, align 1
@H5_libterm_g = external global i8, align 1
@.str = private unnamed_addr constant [105 x i8] c"generated/home/dtcxzyw/WorkSpace/Projects/compilers/llvm-opt-benchmark/bench/hdf5/hdf5/src/H5HFsection.c\00", align 1
@__func__.H5HF__sect_single_new = private unnamed_addr constant [22 x i8] c"H5HF__sect_single_new\00", align 1
@H5E_RESOURCE_g = external global i64, align 8
@H5E_NOSPACE_g = external global i64, align 8
@.str.1 = private unnamed_addr constant [44 x i8] c"memory allocation failed for single section\00", align 1
@H5E_HEAP_g = external global i64, align 8
@H5E_CANTINC_g = external global i64, align 8
@.str.2 = private unnamed_addr constant [57 x i8] c"can't increment reference count on shared indirect block\00", align 1
@__func__.H5FS__sect_node_new = private unnamed_addr constant [20 x i8] c"H5FS__sect_node_new\00", align 1
@.str.16 = private unnamed_addr constant [60 x i8] c"memory allocation failed for direct block free list section\00", align 1
@H5_H5HF_free_section_t_reg_free_list = internal global { i8, [3 x i8], i32, i32, [4 x i8], ptr, i64, ptr } { i8 0, [3 x i8] zeroinitializer, i32 0, i32 0, [4 x i8] zeroinitializer, ptr @.str.17, i64 112, ptr null }, align 8

; Function Attrs: nounwind uwtable
define internal ptr @H5FS__sect_node_new(i32 noundef %0, i64 noundef %1, i64 noundef %2, i32 noundef %3) #0 {
  %5 = alloca i32, align 4
  %6 = alloca i64, align 8
  %7 = alloca i64, align 8
  %8 = alloca i32, align 4
  %9 = alloca ptr, align 8
  %10 = alloca ptr, align 8
  %11 = alloca i8, align 1
  store i32 %0, ptr %5, align 4, !tbaa !11
  store i64 %1, ptr %6, align 8, !tbaa !25
  store i64 %2, ptr %7, align 8, !tbaa !25
  store i32 %3, ptr %8, align 4, !tbaa !11
  call void @llvm.lifetime.start.p0(i64 8, ptr %9) #7
  call void @llvm.lifetime.start.p0(i64 8, ptr %10) #7
  store ptr null, ptr %10, align 8, !tbaa !23
  call void @llvm.lifetime.start.p0(i64 1, ptr %11) #7
  store i8 0, ptr %11, align 1, !tbaa !13
  %12 = load i8, ptr @H5HF_init_g, align 1, !tbaa !13, !range !15, !noundef !16
  %13 = trunc i8 %12 to i1
  br i1 %13, label %18, label %14

14:                                               ; preds = %4
  %15 = load i8, ptr @H5_libterm_g, align 1, !tbaa !13, !range !15, !noundef !16
  %16 = trunc i8 %15 to i1
  %17 = xor i1 %16, true
  br label %18

18:                                               ; preds = %14, %4
  %19 = phi i1 [ true, %4 ], [ %17, %14 ]
  %20 = xor i1 %19, true
  %21 = xor i1 %20, true
  %22 = zext i1 %21 to i32
  %23 = sext i32 %22 to i64
  %24 = call i64 @llvm.expect.i64(i64 %23, i64 1)
  %25 = icmp ne i64 %24, 0
  br i1 %25, label %26, label %67

26:                                               ; preds = %18
  %27 = call noalias ptr @H5FL_reg_malloc(ptr noundef @H5_H5HF_free_section_t_reg_free_list)
  store ptr %27, ptr %9, align 8, !tbaa !23
  %28 = icmp eq ptr null, %27
  br i1 %28, label %29, label %48

29:                                               ; preds = %26
  br label %30

30:                                               ; preds = %29
  br label %31

31:                                               ; preds = %30
  br label %32

32:                                               ; preds = %31
  %33 = load i64, ptr @H5E_RESOURCE_g, align 8, !tbaa !25
  %34 = load i64, ptr @H5E_NOSPACE_g, align 8, !tbaa !25
  %35 = call i32 (ptr, ptr, i32, i64, i64, ptr, ...) @H5E_printf_stack(ptr noundef @.str, ptr noundef @__func__.H5FS__sect_node_new, i32 noundef 372, i64 noundef %33, i64 noundef %34, ptr noundef @.str.16)
  br label %36

36:                                               ; preds = %32
  br label %37

37:                                               ; preds = %36
  store i8 1, ptr %11, align 1, !tbaa !13
  %38 = load i8, ptr %11, align 1, !tbaa !13, !range !15, !noundef !16
  %39 = trunc i8 %38 to i1
  %40 = zext i1 %39 to i8
  store i8 %40, ptr %11, align 1, !tbaa !13
  br label %41

41:                                               ; preds = %37
  br label %42

42:                                               ; preds = %41
  br label %43

43:                                               ; preds = %42
  store ptr null, ptr %10, align 8, !tbaa !23
  br label %66

44:                                               ; No predecessors!
  br label %45

45:                                               ; preds = %44
  br label %46

46:                                               ; preds = %45
  br label %47

47:                                               ; preds = %46
  br label %48

48:                                               ; preds = %47, %26
  %49 = load i64, ptr %6, align 8, !tbaa !25
  %50 = load ptr, ptr %9, align 8, !tbaa !23
  %51 = getelementptr inbounds nuw %struct.H5HF_free_section_t, ptr %50, i32 0, i32 0
  %52 = getelementptr inbounds nuw %struct.H5FS_section_info_t, ptr %51, i32 0, i32 0
  store i64 %49, ptr %52, align 8, !tbaa !36
  %53 = load i64, ptr %7, align 8, !tbaa !25
  %54 = load ptr, ptr %9, align 8, !tbaa !23
  %55 = getelementptr inbounds nuw %struct.H5HF_free_section_t, ptr %54, i32 0, i32 0
  %56 = getelementptr inbounds nuw %struct.H5FS_section_info_t, ptr %55, i32 0, i32 1
  store i64 %53, ptr %56, align 8, !tbaa !37
  %57 = load i32, ptr %5, align 4, !tbaa !11
  %58 = load ptr, ptr %9, align 8, !tbaa !23
  %59 = getelementptr inbounds nuw %struct.H5HF_free_section_t, ptr %58, i32 0, i32 0
  %60 = getelementptr inbounds nuw %struct.H5FS_section_info_t, ptr %59, i32 0, i32 2
  store i32 %57, ptr %60, align 8, !tbaa !27
  %61 = load i32, ptr %8, align 4, !tbaa !11
  %62 = load ptr, ptr %9, align 8, !tbaa !23
  %63 = getelementptr inbounds nuw %struct.H5HF_free_section_t, ptr %62, i32 0, i32 0
  %64 = getelementptr inbounds nuw %struct.H5FS_section_info_t, ptr %63, i32 0, i32 3
  store i32 %61, ptr %64, align 4, !tbaa !38
  %65 = load ptr, ptr %9, align 8, !tbaa !23
  store ptr %65, ptr %10, align 8, !tbaa !23
  br label %66

66:                                               ; preds = %48, %43
  br label %67

67:                                               ; preds = %66, %18
  %68 = load ptr, ptr %10, align 8, !tbaa !23
  call void @llvm.lifetime.end.p0(i64 1, ptr %11) #7
  call void @llvm.lifetime.end.p0(i64 8, ptr %10) #7
  call void @llvm.lifetime.end.p0(i64 8, ptr %9) #7
  ret ptr %68
}

; Function Attrs: nounwind uwtable
define ptr @H5HF__sect_single_new(i64 noundef %0, i64 noundef %1, ptr noundef %2, i32 noundef %3) #0 {
  %5 = alloca i64, align 8
  %6 = alloca i64, align 8
  %7 = alloca ptr, align 8
  %8 = alloca i32, align 4
  %9 = alloca ptr, align 8
  %10 = alloca ptr, align 8
  %11 = alloca i8, align 1
  store i64 %0, ptr %5, align 8, !tbaa !25
  store i64 %1, ptr %6, align 8, !tbaa !25
  store ptr %2, ptr %7, align 8, !tbaa !66
  store i32 %3, ptr %8, align 4, !tbaa !11
  call void @llvm.lifetime.start.p0(i64 8, ptr %9) #7
  store ptr null, ptr %9, align 8, !tbaa !23
  call void @llvm.lifetime.start.p0(i64 8, ptr %10) #7
  store ptr null, ptr %10, align 8, !tbaa !23
  call void @llvm.lifetime.start.p0(i64 1, ptr %11) #7
  store i8 0, ptr %11, align 1, !tbaa !13
  %12 = load i8, ptr @H5HF_init_g, align 1, !tbaa !13, !range !15, !noundef !16
  %13 = trunc i8 %12 to i1
  br i1 %13, label %18, label %14

14:                                               ; preds = %4
  %15 = load i8, ptr @H5_libterm_g, align 1, !tbaa !13, !range !15, !noundef !16
  %16 = trunc i8 %15 to i1
  %17 = xor i1 %16, true
  br label %18

18:                                               ; preds = %14, %4
  %19 = phi i1 [ true, %4 ], [ %17, %14 ]
  %20 = xor i1 %19, true
  %21 = xor i1 %20, true
  %22 = zext i1 %21 to i32
  %23 = sext i32 %22 to i64
  %24 = call i64 @llvm.expect.i64(i64 %23, i64 1)
  %25 = icmp ne i64 %24, 0
  br i1 %25, label %26, label %103

26:                                               ; preds = %18
  %27 = load i64, ptr %5, align 8, !tbaa !25
  %28 = load i64, ptr %6, align 8, !tbaa !25
  %29 = call ptr @H5FS__sect_node_new(i32 noundef 0, i64 noundef %27, i64 noundef %28, i32 noundef 0)
  store ptr %29, ptr %9, align 8, !tbaa !23
  %30 = icmp eq ptr null, %29
  br i1 %30, label %31, label %50

31:                                               ; preds = %26
  br label %32

32:                                               ; preds = %31
  br label %33

33:                                               ; preds = %32
  br label %34

34:                                               ; preds = %33
  %35 = load i64, ptr @H5E_RESOURCE_g, align 8, !tbaa !25
  %36 = load i64, ptr @H5E_NOSPACE_g, align 8, !tbaa !25
  %37 = call i32 (ptr, ptr, i32, i64, i64, ptr, ...) @H5E_printf_stack(ptr noundef @.str, ptr noundef @__func__.H5HF__sect_single_new, i32 noundef 447, i64 noundef %35, i64 noundef %36, ptr noundef @.str.1)
  br label %38

38:                                               ; preds = %34
  br label %39

39:                                               ; preds = %38
  store i8 1, ptr %11, align 1, !tbaa !13
  %40 = load i8, ptr %11, align 1, !tbaa !13, !range !15, !noundef !16
  %41 = trunc i8 %40 to i1
  %42 = zext i1 %41 to i8
  store i8 %42, ptr %11, align 1, !tbaa !13
  br label %43

43:                                               ; preds = %39
  br label %44

44:                                               ; preds = %43
  br label %45

45:                                               ; preds = %44
  store ptr null, ptr %10, align 8, !tbaa !23
  br label %93

46:                                               ; No predecessors!
  br label %47

47:                                               ; preds = %46
  br label %48

48:                                               ; preds = %47
  br label %49

49:                                               ; preds = %48
  br label %50

50:                                               ; preds = %49, %26
  %51 = load ptr, ptr %7, align 8, !tbaa !66
  %52 = load ptr, ptr %9, align 8, !tbaa !23
  %53 = getelementptr inbounds nuw %struct.H5HF_free_section_t, ptr %52, i32 0, i32 1
  %54 = getelementptr inbounds nuw %struct.anon, ptr %53, i32 0, i32 0
  store ptr %51, ptr %54, align 8, !tbaa !63
  %55 = load ptr, ptr %9, align 8, !tbaa !23
  %56 = getelementptr inbounds nuw %struct.H5HF_free_section_t, ptr %55, i32 0, i32 1
  %57 = getelementptr inbounds nuw %struct.anon, ptr %56, i32 0, i32 0
  %58 = load ptr, ptr %57, align 8, !tbaa !63
  %59 = icmp ne ptr %58, null
  br i1 %59, label %60, label %87

60:                                               ; preds = %50
  %61 = load ptr, ptr %9, align 8, !tbaa !23
  %62 = getelementptr inbounds nuw %struct.H5HF_free_section_t, ptr %61, i32 0, i32 1
  %63 = getelementptr inbounds nuw %struct.anon, ptr %62, i32 0, i32 0
  %64 = load ptr, ptr %63, align 8, !tbaa !63
  %65 = call i32 @H5HF__iblock_incr(ptr noundef %64)
  %66 = icmp slt i32 %65, 0
  br i1 %66, label %67, label %86

67:                                               ; preds = %60
  br label %68

68:                                               ; preds = %67
  br label %69

69:                                               ; preds = %68
  br label %70

70:                                               ; preds = %69
  %71 = load i64, ptr @H5E_HEAP_g, align 8, !tbaa !25
  %72 = load i64, ptr @H5E_CANTINC_g, align 8, !tbaa !25
  %73 = call i32 (ptr, ptr, i32, i64, i64, ptr, ...) @H5E_printf_stack(ptr noundef @.str, ptr noundef @__func__.H5HF__sect_single_new, i32 noundef 454, i64 noundef %71, i64 noundef %72, ptr noundef @.str.2)
  br label %74

74:                                               ; preds = %70
  br label %75

75:                                               ; preds = %74
  store i8 1, ptr %11, align 1, !tbaa !13
  %76 = load i8, ptr %11, align 1, !tbaa !13, !range !15, !noundef !16
  %77 = trunc i8 %76 to i1
  %78 = zext i1 %77 to i8
  store i8 %78, ptr %11, align 1, !tbaa !13
  br label %79

79:                                               ; preds = %75
  br label %80

80:                                               ; preds = %79
  br label %81

81:                                               ; preds = %80
  store ptr null, ptr %10, align 8, !tbaa !23
  br label %93

82:                                               ; No predecessors!
  br label %83

83:                                               ; preds = %82
  br label %84

84:                                               ; preds = %83
  br label %85

85:                                               ; preds = %84
  br label %86

86:                                               ; preds = %85, %60
  br label %87

87:                                               ; preds = %86, %50
  %88 = load i32, ptr %8, align 4, !tbaa !11
  %89 = load ptr, ptr %9, align 8, !tbaa !23
  %90 = getelementptr inbounds nuw %struct.H5HF_free_section_t, ptr %89, i32 0, i32 1
  %91 = getelementptr inbounds nuw %struct.anon, ptr %90, i32 0, i32 1
  store i32 %88, ptr %91, align 8, !tbaa !63
  %92 = load ptr, ptr %9, align 8, !tbaa !23
  store ptr %92, ptr %10, align 8, !tbaa !23
  br label %93

93:                                               ; preds = %87, %81, %45
  %94 = load ptr, ptr %10, align 8, !tbaa !23
  %95 = icmp ne ptr %94, null
  br i1 %95, label %102, label %96

96:                                               ; preds = %93
  %97 = load ptr, ptr %9, align 8, !tbaa !23
  %98 = icmp ne ptr %97, null
  br i1 %98, label %99, label %102

99:                                               ; preds = %96
  %100 = load ptr, ptr %9, align 8, !tbaa !23
  %101 = call ptr @H5FL_reg_free(ptr noundef @H5_H5HF_free_section_t_reg_free_list, ptr noundef %100)
  store ptr %101, ptr %9, align 8, !tbaa !23
  br label %102

102:                                              ; preds = %99, %96, %93
  br label %103

103:                                              ; preds = %102, %18
  %104 = load ptr, ptr %10, align 8, !tbaa !23
  call void @llvm.lifetime.end.p0(i64 1, ptr %11) #7
  call void @llvm.lifetime.end.p0(i64 8, ptr %10) #7
  call void @llvm.lifetime.end.p0(i64 8, ptr %9) #7
  ret ptr %104
}