; Function Attrs: nounwind uwtable
define ptr @H5HF__sect_single_new(i64 noundef %0, i64 noundef %1, ptr noundef %2, i32 noundef %3) local_unnamed_addr #0 {
  %5 = load i8, ptr @H5HF_init_g, align 1, !tbaa !3, !range !7, !noundef !8
  %6 = trunc nuw i8 %5 to i1
  %7 = load i8, ptr @H5_libterm_g, align 1, !range !7
  %8 = trunc nuw i8 %7 to i1
  %9 = xor i1 %8, true
  %10 = select i1 %6, i1 true, i1 %9
  br i1 %10, label %11, label %.thread, !prof !9

11:                                               ; preds = %4
  %12 = tail call noalias ptr @H5FL_reg_malloc(ptr noundef nonnull @H5_H5HF_free_section_t_reg_free_list) #13
  %13 = icmp eq ptr %12, null
  br i1 %13, label %14, label %21

14:                                               ; preds = %11
  %15 = load i64, ptr @H5E_RESOURCE_g, align 8, !tbaa !18
  %16 = load i64, ptr @H5E_NOSPACE_g, align 8, !tbaa !18
  %17 = tail call i32 (ptr, ptr, i32, i64, i64, ptr, ...) @H5E_printf_stack(ptr noundef nonnull @.str, ptr noundef nonnull @__func__.H5FS__sect_node_new, i32 noundef 372, i64 noundef %15, i64 noundef %16, ptr noundef nonnull @.str.16) #13
  %18 = load i64, ptr @H5E_RESOURCE_g, align 8, !tbaa !18
  %19 = load i64, ptr @H5E_NOSPACE_g, align 8, !tbaa !18
  %20 = tail call i32 (ptr, ptr, i32, i64, i64, ptr, ...) @H5E_printf_stack(ptr noundef nonnull @.str, ptr noundef nonnull @__func__.H5HF__sect_single_new, i32 noundef 447, i64 noundef %18, i64 noundef %19, ptr noundef nonnull @.str.1) #13
  br label %.thread

21:                                               ; preds = %11
  store i64 %0, ptr %12, align 8, !tbaa !23
  %22 = getelementptr inbounds nuw i8, ptr %12, i64 8
  store i64 %1, ptr %22, align 8, !tbaa !24
  %23 = getelementptr inbounds nuw i8, ptr %12, i64 16
  store i32 0, ptr %23, align 8, !tbaa !20
  %24 = getelementptr inbounds nuw i8, ptr %12, i64 20
  store i32 0, ptr %24, align 4, !tbaa !25
  %25 = getelementptr inbounds nuw i8, ptr %12, i64 24
  store ptr %2, ptr %25, align 8, !tbaa !26
  %.not = icmp eq ptr %2, null
  br i1 %.not, label %29, label %26

26:                                               ; preds = %21
  %27 = tail call i32 @H5HF__iblock_incr(ptr noundef nonnull %2) #13
  %28 = icmp slt i32 %27, 0
  br i1 %28, label %31, label %29

29:                                               ; preds = %26, %21
  %30 = getelementptr inbounds nuw i8, ptr %12, i64 32
  store i32 %3, ptr %30, align 8, !tbaa !26
  br label %.thread

31:                                               ; preds = %26
  %32 = load i64, ptr @H5E_HEAP_g, align 8, !tbaa !18
  %33 = load i64, ptr @H5E_CANTINC_g, align 8, !tbaa !18
  %34 = tail call i32 (ptr, ptr, i32, i64, i64, ptr, ...) @H5E_printf_stack(ptr noundef nonnull @.str, ptr noundef nonnull @__func__.H5HF__sect_single_new, i32 noundef 454, i64 noundef %32, i64 noundef %33, ptr noundef nonnull @.str.2) #13
  %35 = tail call ptr @H5FL_reg_free(ptr noundef nonnull @H5_H5HF_free_section_t_reg_free_list, ptr noundef nonnull %12) #13
  br label %.thread

.thread:                                          ; preds = %14, %29, %31, %4
  %.0 = phi ptr [ null, %31 ], [ null, %4 ], [ %12, %29 ], [ null, %14 ]
  ret ptr %.0
}